; Function Attrs: nounwind uwtable
define internal fastcc i32 @Gia_ManAppendAnd2(ptr noundef %0, i32 noundef %1, i32 noundef %2) unnamed_addr #0 {
  %4 = getelementptr inbounds nuw i8, ptr %0, i64 120
  %5 = load i32, ptr %4, align 8
  %.not = icmp eq i32 %5, 0
  br i1 %.not, label %6, label %19

6:                                                ; preds = %3
  %7 = icmp slt i32 %1, 2
  br i1 %7, label %8, label %10

8:                                                ; preds = %6
  %.not19 = icmp eq i32 %1, 0
  %9 = select i1 %.not19, i32 0, i32 %2
  br label %152

10:                                               ; preds = %6
  %11 = icmp slt i32 %2, 2
  br i1 %11, label %12, label %14

12:                                               ; preds = %10
  %.not18 = icmp eq i32 %2, 0
  %13 = select i1 %.not18, i32 0, i32 %1
  br label %152

14:                                               ; preds = %10
  %15 = icmp eq i32 %1, %2
  br i1 %15, label %152, label %16

16:                                               ; preds = %14
  %17 = xor i32 %2, %1
  %18 = icmp eq i32 %17, 1
  br i1 %18, label %152, label %19

19:                                               ; preds = %16, %3
  %20 = tail call fastcc ptr @Gia_ManAppendObj(ptr noundef nonnull %0)
  %21 = icmp slt i32 %1, %2
  %22 = getelementptr i8, ptr %0, i64 32
  %.val76.i = load ptr, ptr %22, align 8
  %23 = ptrtoint ptr %20 to i64
  %24 = ptrtoint ptr %.val76.i to i64
  %25 = sub i64 %23, %24
  %26 = sdiv exact i64 %25, 12
  %27 = trunc i64 %26 to i32
  %28 = lshr i32 %1, 1
  %29 = sub i32 %27, %28
  %30 = load i64, ptr %20, align 4
  %31 = and i32 %29, 536870911
  %32 = zext nneg i32 %31 to i64
  br i1 %21, label %33, label %55

33:                                               ; preds = %19
  %34 = and i64 %30, -1073741824
  %35 = shl i32 %1, 29
  %36 = and i32 %35, 536870912
  %37 = zext nneg i32 %36 to i64
  %38 = or disjoint i64 %34, %37
  %39 = or disjoint i64 %38, %32
  store i64 %39, ptr %20, align 4
  %.val75.i = load ptr, ptr %22, align 8
  %40 = ptrtoint ptr %.val75.i to i64
  %41 = sub i64 %23, %40
  %42 = sdiv exact i64 %41, 12
  %43 = trunc i64 %42 to i32
  %44 = lshr i32 %2, 1
  %45 = sub i32 %43, %44
  %46 = and i32 %45, 536870911
  %47 = zext nneg i32 %46 to i64
  %48 = shl nuw nsw i64 %47, 32
  %49 = and i64 %39, -4611686014132420609
  %50 = or disjoint i64 %48, %49
  %51 = and i32 %2, 1
  %52 = zext nneg i32 %51 to i64
  %53 = shl nuw nsw i64 %52, 61
  %54 = or disjoint i64 %50, %53
  br label %77

55:                                               ; preds = %19
  %56 = shl nuw nsw i64 %32, 32
  %57 = and i64 %30, -4611686014132420609
  %58 = or disjoint i64 %56, %57
  %59 = and i32 %1, 1
  %60 = zext nneg i32 %59 to i64
  %61 = shl nuw nsw i64 %60, 61
  %62 = or disjoint i64 %58, %61
  store i64 %62, ptr %20, align 4
  %.val73.i = load ptr, ptr %22, align 8
  %63 = ptrtoint ptr %.val73.i to i64
  %64 = sub i64 %23, %63
  %65 = sdiv exact i64 %64, 12
  %66 = trunc i64 %65 to i32
  %67 = lshr i32 %2, 1
  %68 = sub i32 %66, %67
  %69 = and i32 %68, 536870911
  %70 = zext nneg i32 %69 to i64
  %71 = and i64 %62, -1073741824
  %72 = shl i32 %2, 29
  %73 = and i32 %72, 536870912
  %74 = zext nneg i32 %73 to i64
  %75 = or disjoint i64 %71, %74
  %76 = or disjoint i64 %75, %70
  br label %77

77:                                               ; preds = %55, %33
  %storemerge.i = phi i64 [ %54, %33 ], [ %76, %55 ]
  store i64 %storemerge.i, ptr %20, align 4
  %78 = getelementptr inbounds nuw i8, ptr %0, i64 232
  %79 = load ptr, ptr %78, align 8
  %.not.i = icmp eq ptr %79, null
  br i1 %.not.i, label %89, label %80

80:                                               ; preds = %77
  %81 = and i64 %storemerge.i, 536870911
  %82 = sub nsw i64 0, %81
  %83 = getelementptr inbounds %struct.Gia_Obj_t_, ptr %20, i64 %82
  tail call void @Gia_ObjAddFanout(ptr noundef nonnull %0, ptr noundef nonnull %83, ptr noundef nonnull %20) #31
  %84 = load i64, ptr %20, align 4
  %85 = lshr i64 %84, 32
  %86 = and i64 %85, 536870911
  %87 = sub nsw i64 0, %86
  %88 = getelementptr inbounds %struct.Gia_Obj_t_, ptr %20, i64 %87
  tail call void @Gia_ObjAddFanout(ptr noundef nonnull %0, ptr noundef nonnull %88, ptr noundef nonnull %20) #31
  br label %89

89:                                               ; preds = %80, %77
  %90 = getelementptr inbounds nuw i8, ptr %0, i64 116
  %91 = load i32, ptr %90, align 4
  %.not65.i = icmp eq i32 %91, 0
  br i1 %.not65.i, label %116, label %92

92:                                               ; preds = %89
  %93 = load i64, ptr %20, align 4
  %94 = and i64 %93, 536870911
  %95 = sub nsw i64 0, %94
  %96 = getelementptr inbounds %struct.Gia_Obj_t_, ptr %20, i64 %95
  %97 = lshr i64 %93, 32
  %98 = and i64 %97, 536870911
  %99 = sub nsw i64 0, %98
  %100 = getelementptr inbounds %struct.Gia_Obj_t_, ptr %20, i64 %99
  %101 = load i64, ptr %96, align 4
  %102 = and i64 %101, 1073741824
  %.not66.i = icmp eq i64 %102, 0
  %storemerge67.v.i = select i1 %.not66.i, i64 1073741824, i64 4611686018427387904
  %storemerge67.i = or i64 %storemerge67.v.i, %101
  store i64 %storemerge67.i, ptr %96, align 4
  %103 = load i64, ptr %100, align 4
  %104 = and i64 %103, 1073741824
  %.not68.i = icmp eq i64 %104, 0
  %storemerge69.v.i = select i1 %.not68.i, i64 1073741824, i64 4611686018427387904
  %storemerge69.i = or i64 %storemerge69.v.i, %103
  store i64 %storemerge69.i, ptr %100, align 4
  %.val77.i = load i64, ptr %96, align 4
  %105 = lshr i64 %.val77.i, 63
  %.val81.i = load i64, ptr %20, align 4
  %106 = lshr i64 %.val81.i, 29
  %107 = xor i64 %106, %105
  %108 = lshr i64 %103, 63
  %109 = lshr i64 %.val81.i, 61
  %110 = and i64 %109, 1
  %111 = xor i64 %110, %108
  %112 = and i64 %111, %107
  %113 = shl nuw i64 %112, 63
  %114 = and i64 %.val81.i, 9223372036854775807
  %115 = or disjoint i64 %113, %114
  store i64 %115, ptr %20, align 4
  br label %116

116:                                              ; preds = %92, %89
  %117 = getelementptr inbounds nuw i8, ptr %0, i64 808
  %118 = load i32, ptr %117, align 8
  %.not70.i = icmp eq i32 %118, 0
  br i1 %.not70.i, label %143, label %119

119:                                              ; preds = %116
  %120 = load i64, ptr %20, align 4
  %121 = and i64 %120, 536870911
  %122 = sub nsw i64 0, %121
  %123 = getelementptr inbounds %struct.Gia_Obj_t_, ptr %20, i64 %122
  %124 = lshr i64 %120, 32
  %125 = and i64 %124, 536870911
  %126 = sub nsw i64 0, %125
  %127 = getelementptr inbounds %struct.Gia_Obj_t_, ptr %20, i64 %126
  %.val79.i = load i64, ptr %123, align 4
  %128 = lshr i64 %.val79.i, 63
  %129 = lshr i64 %120, 29
  %130 = xor i64 %128, %129
  %.val80.i = load i64, ptr %127, align 4
  %131 = lshr i64 %.val80.i, 63
  %132 = lshr i64 %120, 61
  %133 = and i64 %132, 1
  %134 = xor i64 %131, %133
  %135 = and i64 %134, %130
  %136 = shl nuw i64 %135, 63
  %137 = and i64 %120, 9223372036854775807
  %138 = or disjoint i64 %136, %137
  store i64 %138, ptr %20, align 4
  %.val72.i = load ptr, ptr %22, align 8
  %139 = ptrtoint ptr %.val72.i to i64
  %140 = sub i64 %23, %139
  %141 = sdiv exact i64 %140, 12
  %142 = trunc i64 %141 to i32
  tail call void @Gia_ManBuiltInSimPerform(ptr noundef nonnull %0, i32 noundef %142) #31
  br label %143

143:                                              ; preds = %119, %116
  %144 = getelementptr inbounds nuw i8, ptr %0, i64 984
  %145 = load ptr, ptr %144, align 8
  %.not71.i = icmp eq ptr %145, null
  br i1 %.not71.i, label %Gia_ManAppendAnd.exit, label %146

146:                                              ; preds = %143
  tail call void @Gia_ManQuantSetSuppAnd(ptr noundef nonnull %0, ptr noundef nonnull %20) #31
  br label %Gia_ManAppendAnd.exit

Gia_ManAppendAnd.exit:                            ; preds = %143, %146
  %.val.i = load ptr, ptr %22, align 8
  %147 = ptrtoint ptr %.val.i to i64
  %148 = sub i64 %23, %147
  %149 = sdiv exact i64 %148, 12
  %150 = trunc i64 %149 to i32
  %151 = shl i32 %150, 1
  br label %152

152:                                              ; preds = %16, %14, %Gia_ManAppendAnd.exit, %12, %8
  %.0 = phi i32 [ %151, %Gia_ManAppendAnd.exit ], [ %9, %8 ], [ %13, %12 ], [ %1, %14 ], [ 0, %16 ]
  ret i32 %.0
}